; Function Attrs: nounwind uwtable
define ptr @Bnd_ManGenImplOut(ptr noundef %0) local_unnamed_addr #1 {
  %2 = load ptr, ptr @pBnd, align 8
  %3 = getelementptr inbounds nuw i8, ptr %2, i64 52
  %4 = load i32, ptr %3, align 4
  %.not = icmp eq i32 %4, 0
  br i1 %.not, label %6, label %5

5:                                                ; preds = %1
  %puts = tail call i32 @puts(ptr nonnull dereferenceable(1) @str.13)
  %.pre = load ptr, ptr @pBnd, align 8
  br label %6

6:                                                ; preds = %5, %1
  %7 = phi ptr [ %.pre, %5 ], [ %2, %1 ]
  %8 = getelementptr inbounds nuw i8, ptr %7, i64 152
  %9 = load ptr, ptr %8, align 8
  %10 = getelementptr inbounds nuw i8, ptr %7, i64 160
  %11 = load ptr, ptr %10, align 8
  %12 = getelementptr inbounds nuw i8, ptr %7, i64 168
  %13 = load ptr, ptr %12, align 8
  %14 = getelementptr inbounds nuw i8, ptr %7, i64 176
  %15 = load ptr, ptr %14, align 8
  %16 = tail call ptr @Bnd_ManCutBoundary(ptr noundef %0, ptr noundef %9, ptr noundef %11, ptr noundef %13, ptr noundef %15)
  %.not3 = icmp eq ptr %16, null
  %17 = load ptr, ptr @pBnd, align 8
  br i1 %.not3, label %20, label %18

18:                                               ; preds = %6
  %19 = getelementptr inbounds nuw i8, ptr %17, i64 48
  store i32 2, ptr %19, align 8
  br label %22

20:                                               ; preds = %6
  %21 = getelementptr inbounds nuw i8, ptr %17, i64 60
  store i32 1, ptr %21, align 4
  br label %22

22:                                               ; preds = %20, %18
  ret ptr %16
}